target datalayout = "e-m:e-p270:32:32-p271:32:32-p272:64:64-i64:64-i128:128-f80:128-n8:16:32:64-S128"
target triple = "x86_64-pc-linux-gnu"

@.str.7 = private unnamed_addr constant [9 x i8] c"udp.port\00", align 1
@mdns_udp_handle = internal global ptr null, align 8
@llmnr_udp_handle = internal global ptr null, align 8
@.str.8 = private unnamed_addr constant [10 x i8] c"sctp.port\00", align 1
@dns_handle = internal global ptr null, align 8
@.str.9 = private unnamed_addr constant [4 x i8] c"dns\00", align 1
@.str.10 = private unnamed_addr constant [4 x i8] c"DNS\00", align 1
@.str.11 = private unnamed_addr constant [12 x i8] c"Packet Type\00", align 1
@.str.12 = private unnamed_addr constant [7 x i8] c"dns_qr\00", align 1
@.str.13 = private unnamed_addr constant [19 x i8] c"DNS/Query-Response\00", align 1
@.str.14 = private unnamed_addr constant [7 x i8] c"gssapi\00", align 1
@proto_dns = internal global i32 0, align 4
@gssapi_handle = internal global ptr null, align 8
@.str.15 = private unnamed_addr constant [8 x i8] c"ntlmssp\00", align 1
@ntlmssp_handle = internal global ptr null, align 8
@.str.16 = private unnamed_addr constant [14 x i8] c"tls-echconfig\00", align 1
@tls_echconfig_handle = internal global ptr null, align 8
@.str.17 = private unnamed_addr constant [9 x i8] c"tls.alpn\00", align 1
@.str.18 = private unnamed_addr constant [4 x i8] c"dot\00", align 1
@.str.19 = private unnamed_addr constant [9 x i8] c"tcp.port\00", align 1
@.str.20 = private unnamed_addr constant [8 x i8] c"53,5353\00", align 1
@.str.21 = private unnamed_addr constant [3 x i8] c"53\00", align 1
@.str.22 = private unnamed_addr constant [11 x i8] c"media_type\00", align 1
@.str.23 = private unnamed_addr constant [24 x i8] c"application/dns-message\00", align 1
@.str.24 = private unnamed_addr constant [11 x i8] c"quic.proto\00", align 1
@.str.25 = private unnamed_addr constant [4 x i8] c"doq\00", align 1
@doq_handle = internal global ptr null, align 8
@.str.26 = private unnamed_addr constant [4 x i8] c"udp\00", align 1
@.str.27 = private unnamed_addr constant [13 x i8] c"DNS over UDP\00", align 1
@.str.28 = private unnamed_addr constant [8 x i8] c"dns_udp\00", align 1

; Function Attrs: null_pointer_is_valid sspstrong uwtable
define hidden void @proto_reg_handoff_dns() #0 {
  %1 = alloca ptr, align 8
  %2 = load ptr, ptr @mdns_udp_handle, align 8
  call void @dissector_add_uint_with_preference(ptr noundef @.str.7, i32 noundef 5353, ptr noundef %2)
  %3 = load ptr, ptr @llmnr_udp_handle, align 8
  call void @dissector_add_uint_with_preference(ptr noundef @.str.7, i32 noundef 5355, ptr noundef %3)
  %4 = load ptr, ptr @dns_handle, align 8
  call void @dissector_add_uint(ptr noundef @.str.8, i32 noundef 53, ptr noundef %4)
  call void @llvm.lifetime.start.p0(i64 8, ptr %1) #11
  %5 = call ptr @stats_tree_register(ptr noundef @.str.9, ptr noundef @.str.9, ptr noundef @.str.10, i32 noundef 0, ptr noundef @dns_stats_tree_packet, ptr noundef @dns_stats_tree_init, ptr noundef null)
  store ptr %5, ptr %1, align 8
  %6 = load ptr, ptr %1, align 8
  call void @stats_tree_set_first_column_name(ptr noundef %6, ptr noundef @.str.11)
  %7 = call ptr @stats_tree_register(ptr noundef @.str.9, ptr noundef @.str.12, ptr noundef @.str.13, i32 noundef 0, ptr noundef @dns_qr_stats_tree_packet, ptr noundef @dns_qr_stats_tree_init, ptr noundef @dns_qr_stats_tree_cleanup)
  %8 = load i32, ptr @proto_dns, align 4
  %9 = call ptr @find_dissector_add_dependency(ptr noundef @.str.14, i32 noundef %8)
  store ptr %9, ptr @gssapi_handle, align 8
  %10 = load i32, ptr @proto_dns, align 4
  %11 = call ptr @find_dissector_add_dependency(ptr noundef @.str.15, i32 noundef %10)
  store ptr %11, ptr @ntlmssp_handle, align 8
  %12 = call ptr @find_dissector(ptr noundef @.str.16)
  store ptr %12, ptr @tls_echconfig_handle, align 8
  %13 = load ptr, ptr @dns_handle, align 8
  call void @ssl_dissector_add(i32 noundef 853, ptr noundef %13)
  %14 = load ptr, ptr @dns_handle, align 8
  call void @dissector_add_string(ptr noundef @.str.17, ptr noundef @.str.18, ptr noundef %14)
  %15 = load ptr, ptr @dns_handle, align 8
  call void @dtls_dissector_add(i32 noundef 853, ptr noundef %15)
  %16 = load ptr, ptr @dns_handle, align 8
  call void @dissector_add_uint_range_with_preference(ptr noundef @.str.19, ptr noundef @.str.20, ptr noundef %16)
  %17 = load ptr, ptr @dns_handle, align 8
  call void @dissector_add_uint_range_with_preference(ptr noundef @.str.7, ptr noundef @.str.21, ptr noundef %17)
  %18 = load ptr, ptr @dns_handle, align 8
  call void @dissector_add_string(ptr noundef @.str.22, ptr noundef @.str.23, ptr noundef %18)
  %19 = load ptr, ptr @doq_handle, align 8
  call void @dissector_add_string(ptr noundef @.str.24, ptr noundef @.str.25, ptr noundef %19)
  %20 = load i32, ptr @proto_dns, align 4
  call void @heur_dissector_add(ptr noundef @.str.26, ptr noundef @dissect_dns_heur, ptr noundef @.str.27, ptr noundef @.str.28, i32 noundef %20, i32 noundef 1)
  call void @llvm.lifetime.end.p0(i64 8, ptr %1) #11
  ret void
}