; Function Attrs: null_pointer_is_valid sspstrong uwtable
define hidden void @proto_reg_handoff_dns() local_unnamed_addr #0 {
  %1 = load ptr, ptr @mdns_udp_handle, align 8
  tail call void @dissector_add_uint_with_preference(ptr noundef nonnull @.str.7, i32 noundef 5353, ptr noundef %1)
  %2 = load ptr, ptr @llmnr_udp_handle, align 8
  tail call void @dissector_add_uint_with_preference(ptr noundef nonnull @.str.7, i32 noundef 5355, ptr noundef %2)
  %3 = load ptr, ptr @dns_handle, align 8
  tail call void @dissector_add_uint(ptr noundef nonnull @.str.8, i32 noundef 53, ptr noundef %3)
  %4 = tail call ptr @stats_tree_register(ptr noundef nonnull @.str.9, ptr noundef nonnull @.str.9, ptr noundef nonnull @.str.10, i32 noundef 0, ptr noundef nonnull @dns_stats_tree_packet, ptr noundef nonnull @dns_stats_tree_init, ptr noundef null)
  tail call void @stats_tree_set_first_column_name(ptr noundef %4, ptr noundef nonnull @.str.11)
  %5 = tail call ptr @stats_tree_register(ptr noundef nonnull @.str.9, ptr noundef nonnull @.str.12, ptr noundef nonnull @.str.13, i32 noundef 0, ptr noundef nonnull @dns_qr_stats_tree_packet, ptr noundef nonnull @dns_qr_stats_tree_init, ptr noundef nonnull @dns_qr_stats_tree_cleanup)
  %6 = load i32, ptr @proto_dns, align 4
  %7 = tail call ptr @find_dissector_add_dependency(ptr noundef nonnull @.str.14, i32 noundef %6)
  store ptr %7, ptr @gssapi_handle, align 8
  %8 = load i32, ptr @proto_dns, align 4
  %9 = tail call ptr @find_dissector_add_dependency(ptr noundef nonnull @.str.15, i32 noundef %8)
  store ptr %9, ptr @ntlmssp_handle, align 8
  %10 = tail call ptr @find_dissector(ptr noundef nonnull @.str.16)
  store ptr %10, ptr @tls_echconfig_handle, align 8
  %11 = load ptr, ptr @dns_handle, align 8
  tail call void @ssl_dissector_add(i32 noundef 853, ptr noundef %11)
  %12 = load ptr, ptr @dns_handle, align 8
  tail call void @dissector_add_string(ptr noundef nonnull @.str.17, ptr noundef nonnull @.str.18, ptr noundef %12)
  %13 = load ptr, ptr @dns_handle, align 8
  tail call void @dtls_dissector_add(i32 noundef 853, ptr noundef %13)
  %14 = load ptr, ptr @dns_handle, align 8
  tail call void @dissector_add_uint_range_with_preference(ptr noundef nonnull @.str.19, ptr noundef nonnull @.str.20, ptr noundef %14)
  %15 = load ptr, ptr @dns_handle, align 8
  tail call void @dissector_add_uint_range_with_preference(ptr noundef nonnull @.str.7, ptr noundef nonnull @.str.21, ptr noundef %15)
  %16 = load ptr, ptr @dns_handle, align 8
  tail call void @dissector_add_string(ptr noundef nonnull @.str.22, ptr noundef nonnull @.str.23, ptr noundef %16)
  %17 = load ptr, ptr @doq_handle, align 8
  tail call void @dissector_add_string(ptr noundef nonnull @.str.24, ptr noundef nonnull @.str.25, ptr noundef %17)
  %18 = load i32, ptr @proto_dns, align 4
  tail call void @heur_dissector_add(ptr noundef nonnull @.str.26, ptr noundef nonnull @dissect_dns_heur, ptr noundef nonnull @.str.27, ptr noundef nonnull @.str.28, i32 noundef %18, i32 noundef 1)
  ret void
}